target datalayout = "e-m:e-p270:32:32-p271:32:32-p272:64:64-i64:64-i128:128-f80:128-n8:16:32:64-S128"
target triple = "x86_64-pc-linux-gnu"

; Function Attrs: nounwind uwtable
define internal i32 @ParseInt(ptr noundef %0, i32 noundef %1, i32 noundef %2, ptr noundef %3) #0 {
  %5 = alloca i32, align 4
  %6 = alloca ptr, align 8
  %7 = alloca i32, align 4
  %8 = alloca i32, align 4
  %9 = alloca ptr, align 8
  %10 = alloca i32, align 4
  %11 = alloca i32, align 4
  %12 = alloca i8, align 1
  %13 = alloca i32, align 4
  store ptr %0, ptr %6, align 8, !tbaa !56
  store i32 %1, ptr %7, align 4, !tbaa !4
  store i32 %2, ptr %8, align 4, !tbaa !4
  store ptr %3, ptr %9, align 8, !tbaa !69
  call void @llvm.lifetime.start.p0(i64 4, ptr %10) #8
  store i32 0, ptr %10, align 4, !tbaa !4
  call void @llvm.lifetime.start.p0(i64 4, ptr %11) #8
  store i32 0, ptr %11, align 4, !tbaa !4
  br label %14

14:                                               ; preds = %54, %4
  %15 = load i32, ptr %11, align 4, !tbaa !4
  %16 = icmp slt i32 %15, 5
  br i1 %16, label %17, label %57

17:                                               ; preds = %14
  call void @llvm.lifetime.start.p0(i64 1, ptr %12) #8
  %18 = load ptr, ptr %6, align 8, !tbaa !56
  %19 = load i32, ptr %11, align 4, !tbaa !4
  %20 = sext i32 %19 to i64
  %21 = getelementptr inbounds i8, ptr %18, i64 %20
  %22 = load i8, ptr %21, align 1, !tbaa !58
  store i8 %22, ptr %12, align 1, !tbaa !58
  %23 = load i8, ptr %12, align 1, !tbaa !58
  %24 = sext i8 %23 to i32
  %25 = icmp eq i32 %24, 0
  br i1 %25, label %26, label %27

26:                                               ; preds = %17
  store i32 2, ptr %13, align 4
  br label %51

27:                                               ; preds = %17
  %28 = load ptr, ptr %6, align 8, !tbaa !56
  %29 = load i32, ptr %11, align 4, !tbaa !4
  %30 = sext i32 %29 to i64
  %31 = getelementptr inbounds i8, ptr %28, i64 %30
  %32 = load i8, ptr %31, align 1, !tbaa !58
  %33 = sext i8 %32 to i32
  %34 = icmp slt i32 %33, 48
  br i1 %34, label %43, label %35

35:                                               ; preds = %27
  %36 = load ptr, ptr %6, align 8, !tbaa !56
  %37 = load i32, ptr %11, align 4, !tbaa !4
  %38 = sext i32 %37 to i64
  %39 = getelementptr inbounds i8, ptr %36, i64 %38
  %40 = load i8, ptr %39, align 1, !tbaa !58
  %41 = sext i8 %40 to i32
  %42 = icmp sgt i32 %41, 57
  br i1 %42, label %43, label %44

43:                                               ; preds = %35, %27
  store i32 0, ptr %5, align 4
  store i32 1, ptr %13, align 4
  br label %51

44:                                               ; preds = %35
  %45 = load i32, ptr %10, align 4, !tbaa !4
  %46 = mul nsw i32 10, %45
  %47 = load i8, ptr %12, align 1, !tbaa !58
  %48 = sext i8 %47 to i32
  %49 = sub nsw i32 %48, 48
  %50 = add nsw i32 %46, %49
  store i32 %50, ptr %10, align 4, !tbaa !4
  store i32 0, ptr %13, align 4
  br label %51

51:                                               ; preds = %44, %43, %26
  call void @llvm.lifetime.end.p0(i64 1, ptr %12) #8
  %52 = load i32, ptr %13, align 4
  switch i32 %52, label %92 [
    i32 0, label %53
    i32 2, label %57
  ]

53:                                               ; preds = %51
  br label %54

54:                                               ; preds = %53
  %55 = load i32, ptr %11, align 4, !tbaa !4
  %56 = add nsw i32 %55, 1
  store i32 %56, ptr %11, align 4, !tbaa !4
  br label %14, !llvm.loop !71

57:                                               ; preds = %51, %14
  %58 = load i32, ptr %11, align 4, !tbaa !4
  %59 = icmp eq i32 %58, 0
  br i1 %59, label %60, label %61

60:                                               ; preds = %57
  store i32 0, ptr %5, align 4
  store i32 1, ptr %13, align 4
  br label %92

61:                                               ; preds = %57
  %62 = load i32, ptr %11, align 4, !tbaa !4
  %63 = icmp sgt i32 %62, 1
  br i1 %63, label %64, label %71

64:                                               ; preds = %61
  %65 = load ptr, ptr %6, align 8, !tbaa !56
  %66 = getelementptr inbounds i8, ptr %65, i64 0
  %67 = load i8, ptr %66, align 1, !tbaa !58
  %68 = sext i8 %67 to i32
  %69 = icmp eq i32 %68, 48
  br i1 %69, label %70, label %71

70:                                               ; preds = %64
  store i32 0, ptr %5, align 4
  store i32 1, ptr %13, align 4
  br label %92

71:                                               ; preds = %64, %61
  %72 = load ptr, ptr %6, align 8, !tbaa !56
  %73 = load i32, ptr %11, align 4, !tbaa !4
  %74 = sext i32 %73 to i64
  %75 = getelementptr inbounds i8, ptr %72, i64 %74
  %76 = load i8, ptr %75, align 1, !tbaa !58
  %77 = sext i8 %76 to i32
  %78 = icmp ne i32 %77, 0
  br i1 %78, label %79, label %80

79:                                               ; preds = %71
  store i32 0, ptr %5, align 4
  store i32 1, ptr %13, align 4
  br label %92

80:                                               ; preds = %71
  %81 = load i32, ptr %10, align 4, !tbaa !4
  %82 = load i32, ptr %7, align 4, !tbaa !4
  %83 = icmp slt i32 %81, %82
  br i1 %83, label %88, label %84

84:                                               ; preds = %80
  %85 = load i32, ptr %10, align 4, !tbaa !4
  %86 = load i32, ptr %8, align 4, !tbaa !4
  %87 = icmp sgt i32 %85, %86
  br i1 %87, label %88, label %89

88:                                               ; preds = %84, %80
  store i32 0, ptr %5, align 4
  store i32 1, ptr %13, align 4
  br label %92

89:                                               ; preds = %84
  %90 = load i32, ptr %10, align 4, !tbaa !4
  %91 = load ptr, ptr %9, align 8, !tbaa !69
  store i32 %90, ptr %91, align 4, !tbaa !4
  store i32 1, ptr %5, align 4
  store i32 1, ptr %13, align 4
  br label %92

92:                                               ; preds = %89, %88, %79, %70, %60, %51
  call void @llvm.lifetime.end.p0(i64 4, ptr %11) #8
  call void @llvm.lifetime.end.p0(i64 4, ptr %10) #8
  %93 = load i32, ptr %5, align 4
  ret i32 %93
}