; Function Attrs: nofree norecurse nosync nounwind memory(argmem: readwrite) uwtable
define internal fastcc range(i32 0, 2) i32 @ParseInt(ptr noundef readonly captures(none) %0, i32 noundef range(i32 11, 31) %1, ptr noundef nonnull writeonly captures(none) %2) unnamed_addr #8 {
  br label %4

4:                                                ; preds = %3, %10
  %indvars.iv = phi i64 [ 0, %3 ], [ %indvars.iv.next, %10 ]
  %.02540 = phi i32 [ 0, %3 ], [ %13, %10 ]
  %5 = getelementptr inbounds nuw i8, ptr %0, i64 %indvars.iv
  %6 = load i8, ptr %5, align 1, !tbaa !27
  %7 = icmp eq i8 %6, 0
  br i1 %7, label %14, label %8

8:                                                ; preds = %4
  %9 = add i8 %6, -58
  %or.cond = icmp ult i8 %9, -10
  br i1 %or.cond, label %.thread, label %10

10:                                               ; preds = %8
  %11 = mul nsw i32 %.02540, 10
  %narrow = add nsw i8 %6, -48
  %12 = zext nneg i8 %narrow to i32
  %13 = add nsw i32 %11, %12
  %indvars.iv.next = add nuw nsw i64 %indvars.iv, 1
  %exitcond.not = icmp eq i64 %indvars.iv.next, 5
  br i1 %exitcond.not, label %.thread43, label %4, !llvm.loop !36

14:                                               ; preds = %4
  %15 = trunc nuw nsw i64 %indvars.iv to i32
  switch i32 %15, label %.thread43 [
    i32 0, label %.thread
    i32 1, label %18
  ]

.thread43:                                        ; preds = %10, %14
  %.024.lcssa49 = phi i64 [ %indvars.iv, %14 ], [ 5, %10 ]
  %.025.lcssa47 = phi i32 [ %.02540, %14 ], [ %13, %10 ]
  %16 = load i8, ptr %0, align 1, !tbaa !27
  %17 = icmp eq i8 %16, 48
  br i1 %17, label %.thread, label %18

18:                                               ; preds = %14, %.thread43
  %.024.lcssa48 = phi i64 [ 1, %14 ], [ %.024.lcssa49, %.thread43 ]
  %.025.lcssa46 = phi i32 [ %.02540, %14 ], [ %.025.lcssa47, %.thread43 ]
  %19 = and i64 %.024.lcssa48, 4294967295
  %20 = getelementptr inbounds nuw i8, ptr %0, i64 %19
  %21 = load i8, ptr %20, align 1, !tbaa !27
  %.not29 = icmp ne i8 %21, 0
  %or.cond30 = icmp ugt i32 %.025.lcssa46, %1
  %or.cond37 = select i1 %.not29, i1 true, i1 %or.cond30
  br i1 %or.cond37, label %.thread, label %22

22:                                               ; preds = %18
  store i32 %.025.lcssa46, ptr %2, align 4, !tbaa !20
  br label %.thread

.thread:                                          ; preds = %8, %18, %.thread43, %14, %22
  %.2 = phi i32 [ 1, %22 ], [ %15, %14 ], [ 0, %.thread43 ], [ 0, %18 ], [ 0, %8 ]
  ret i32 %.2
}